target datalayout = "e-m:e-p270:32:32-p271:32:32-p272:64:64-i64:64-i128:128-f80:128-n8:16:32:64-S128"
target triple = "x86_64-pc-linux-gnu"

%"class.std::__cxx11::basic_string" = type { %"struct.std::__cxx11::basic_string<char>::_Alloc_hider", i64, %union.anon }
%"struct.std::__cxx11::basic_string<char>::_Alloc_hider" = type { ptr }
%union.anon = type { i64, [8 x i8] }
%"struct.std::pair" = type { %"struct.nix::PosixSourceAccessor", %"class.nix::CanonPath" }
%"struct.nix::PosixSourceAccessor" = type { ptr, %"class.std::filesystem::__cxx11::path", i64, %"struct.nix::SourceAccessor" }
%"class.std::filesystem::__cxx11::path" = type { %"class.std::__cxx11::basic_string", %"struct.std::filesystem::__cxx11::path::_List" }
%"struct.std::filesystem::__cxx11::path::_List" = type { %"class.std::unique_ptr" }
%"class.std::unique_ptr" = type { %"struct.std::__uniq_ptr_data" }
%"struct.std::__uniq_ptr_data" = type { %"class.std::__uniq_ptr_impl" }
%"class.std::__uniq_ptr_impl" = type { %"class.std::tuple" }
%"class.std::tuple" = type { %"struct.std::_Tuple_impl" }
%"struct.std::_Tuple_impl" = type { %"struct.std::_Head_base.18" }
%"struct.std::_Head_base.18" = type { ptr }
%"struct.nix::SourceAccessor" = type { ptr, i64, %"class.std::__cxx11::basic_string", %"class.std::__cxx11::basic_string" }
%"class.nix::CanonPath" = type { %"class.std::__cxx11::basic_string" }

; Function Attrs: mustprogress nounwind uwtable
define linkonce_odr noundef nonnull align 8 dereferenceable(32) ptr @_ZNSt10__pair_getILm1EE10__move_getIN3nix19PosixSourceAccessorENS2_9CanonPathEEEOT0_OSt4pairIT_S5_E(ptr noundef nonnull align 8 dereferenceable(168) %0) #2 comdat align 2 {
  %2 = alloca ptr, align 8
  store ptr %0, ptr %2, align 8
  %3 = load ptr, ptr %2, align 8
  %4 = getelementptr inbounds %"struct.std::pair", ptr %3, i32 0, i32 1
  ret ptr %4
}

; Function Attrs: mustprogress nounwind uwtable
define linkonce_odr noundef nonnull align 8 dereferenceable(56) ptr @_ZNSt10__pair_getILm0EE10__move_getIN3nix19PosixSourceAccessorENS2_9CanonPathEEEOT_OSt4pairIS5_T0_E(ptr noundef nonnull align 8 dereferenceable(168) %0) #2 comdat align 2 {
  %2 = alloca ptr, align 8
  store ptr %0, ptr %2, align 8
  %3 = load ptr, ptr %2, align 8
  %4 = getelementptr inbounds %"struct.std::pair", ptr %3, i32 0, i32 0
  ret ptr %4
}

; Function Attrs: mustprogress nounwind uwtable
define linkonce_odr noundef nonnull align 8 dereferenceable(32) ptr @_ZSt3getILm1EN3nix19PosixSourceAccessorENS0_9CanonPathEEONSt13tuple_elementIXT_ESt4pairIT0_T1_EE4typeEOS7_(ptr noundef nonnull align 8 dereferenceable(168) %0) #2 comdat {
  %2 = alloca ptr, align 8
  store ptr %0, ptr %2, align 8
  %3 = load ptr, ptr %2, align 8
  %4 = call noundef nonnull align 8 dereferenceable(32) ptr @_ZNSt10__pair_getILm1EE10__move_getIN3nix19PosixSourceAccessorENS2_9CanonPathEEEOT0_OSt4pairIT_S5_E(ptr noundef nonnull align 8 dereferenceable(168) %3) #1
  ret ptr %4
}

; Function Attrs: mustprogress nounwind uwtable
define linkonce_odr noundef nonnull align 8 dereferenceable(56) ptr @_ZSt3getILm0EN3nix19PosixSourceAccessorENS0_9CanonPathEEONSt13tuple_elementIXT_ESt4pairIT0_T1_EE4typeEOS7_(ptr noundef nonnull align 8 dereferenceable(168) %0) #2 comdat {
  %2 = alloca ptr, align 8
  store ptr %0, ptr %2, align 8
  %3 = load ptr, ptr %2, align 8
  %4 = call noundef nonnull align 8 dereferenceable(56) ptr @_ZNSt10__pair_getILm0EE10__move_getIN3nix19PosixSourceAccessorENS2_9CanonPathEEEOT_OSt4pairIS5_T0_E(ptr noundef nonnull align 8 dereferenceable(168) %3) #1
  ret ptr %4
}

; Function Attrs: mustprogress uwtable
define noundef i64 @_ZN3nix19dumpPathAndGetMtimeERKNSt7__cxx1112basic_stringIcSt11char_traitsIcESaIcEEERNS_4SinkERSt8functionIFbS7_EE(ptr noundef nonnull align 8 dereferenceable(32) %0, ptr noundef nonnull align 8 dereferenceable(8) %1, ptr noundef nonnull align 8 dereferenceable(32) %2) #5 personality ptr @__gxx_personality_v0 {
  %4 = alloca ptr, align 8
  %5 = alloca ptr, align 8
  %6 = alloca ptr, align 8
  %7 = alloca %"struct.std::pair", align 8
  %8 = alloca %"class.std::filesystem::__cxx11::path", align 8
  %9 = alloca ptr, align 8
  %10 = alloca i32, align 4
  %11 = alloca ptr, align 8
  %12 = alloca ptr, align 8
  store ptr %0, ptr %4, align 8
  store ptr %1, ptr %5, align 8
  store ptr %2, ptr %6, align 8
  %13 = load ptr, ptr %4, align 8
  call void @_ZNSt10filesystem7__cxx114pathC2INSt7__cxx1112basic_stringIcSt11char_traitsIcESaIcEEES1_EERKT_NS1_6formatE(ptr noundef nonnull align 8 dereferenceable(40) %8, ptr noundef nonnull align 8 dereferenceable(32) %13, i8 noundef zeroext 2)
  invoke void @_ZN3nix19PosixSourceAccessor12createAtRootERKNSt10filesystem7__cxx114pathE(ptr dead_on_unwind writable sret(%"struct.std::pair") align 8 %7, ptr noundef nonnull align 8 dereferenceable(40) %8)
          to label %14 unwind label %32

14:                                               ; preds = %3
  call void @_ZNSt10filesystem7__cxx114pathD2Ev(ptr noundef nonnull align 8 dereferenceable(40) %8) #1
  %15 = call noundef nonnull align 8 dereferenceable(56) ptr @_ZSt3getILm0EN3nix19PosixSourceAccessorENS0_9CanonPathEEONSt13tuple_elementIXT_ESt4pairIT0_T1_EE4typeEOS7_(ptr noundef nonnull align 8 dereferenceable(168) %7) #1
  store ptr %15, ptr %11, align 8
  %16 = call noundef nonnull align 8 dereferenceable(32) ptr @_ZSt3getILm1EN3nix19PosixSourceAccessorENS0_9CanonPathEEONSt13tuple_elementIXT_ESt4pairIT0_T1_EE4typeEOS7_(ptr noundef nonnull align 8 dereferenceable(168) %7) #1
  store ptr %16, ptr %12, align 8
  %17 = load ptr, ptr %11, align 8
  %18 = load ptr, ptr %17, align 8
  %19 = getelementptr i8, ptr %18, i64 -24
  %20 = load i64, ptr %19, align 8
  %21 = getelementptr inbounds i8, ptr %17, i64 %20
  %22 = load ptr, ptr %12, align 8
  %23 = load ptr, ptr %5, align 8
  %24 = load ptr, ptr %6, align 8
  %25 = load ptr, ptr %21, align 8
  %26 = getelementptr inbounds ptr, ptr %25, i64 8
  %27 = load ptr, ptr %26, align 8
  invoke void %27(ptr noundef nonnull align 8 dereferenceable(80) %21, ptr noundef nonnull align 8 dereferenceable(32) %22, ptr noundef nonnull align 8 dereferenceable(8) %23, ptr noundef nonnull align 8 dereferenceable(32) %24)
          to label %28 unwind label %36

28:                                               ; preds = %14
  %29 = load ptr, ptr %11, align 8
  %30 = getelementptr inbounds %"struct.nix::PosixSourceAccessor", ptr %29, i32 0, i32 2
  %31 = load i64, ptr %30, align 8
  call void @_ZNSt4pairIN3nix19PosixSourceAccessorENS0_9CanonPathEED2Ev(ptr noundef nonnull align 8 dereferenceable(168) %7) #1
  ret i64 %31

32:                                               ; preds = %3
  %33 = landingpad { ptr, i32 }
          cleanup
  %34 = extractvalue { ptr, i32 } %33, 0
  store ptr %34, ptr %9, align 8
  %35 = extractvalue { ptr, i32 } %33, 1
  store i32 %35, ptr %10, align 4
  call void @_ZNSt10filesystem7__cxx114pathD2Ev(ptr noundef nonnull align 8 dereferenceable(40) %8) #1
  br label %40

36:                                               ; preds = %14
  %37 = landingpad { ptr, i32 }
          cleanup
  %38 = extractvalue { ptr, i32 } %37, 0
  store ptr %38, ptr %9, align 8
  %39 = extractvalue { ptr, i32 } %37, 1
  store i32 %39, ptr %10, align 4
  call void @_ZNSt4pairIN3nix19PosixSourceAccessorENS0_9CanonPathEED2Ev(ptr noundef nonnull align 8 dereferenceable(168) %7) #1
  br label %40

40:                                               ; preds = %36, %32
  %41 = load ptr, ptr %9, align 8
  %42 = load i32, ptr %10, align 4
  %43 = insertvalue { ptr, i32 } poison, ptr %41, 0
  %44 = insertvalue { ptr, i32 } %43, i32 %42, 1
  resume { ptr, i32 } %44
}