; Function Attrs: mustprogress uwtable
define noundef i64 @_ZN3nix19dumpPathAndGetMtimeERKNSt7__cxx1112basic_stringIcSt11char_traitsIcESaIcEEERNS_4SinkERSt8functionIFbS7_EE(ptr noundef nonnull align 8 dereferenceable(32) %0, ptr noundef nonnull align 8 dereferenceable(8) %1, ptr noundef nonnull align 8 dereferenceable(32) %2) local_unnamed_addr #4 personality ptr @__gxx_personality_v0 {
  %4 = alloca %"struct.std::pair", align 8
  %5 = alloca %"class.std::filesystem::__cxx11::path", align 8
  call void @_ZNSt10filesystem7__cxx114pathC2INSt7__cxx1112basic_stringIcSt11char_traitsIcESaIcEEES1_EERKT_NS1_6formatE(ptr noundef nonnull align 8 dereferenceable(40) %5, ptr noundef nonnull align 8 dereferenceable(32) %0, i8 noundef zeroext 2)
  invoke void @_ZN3nix19PosixSourceAccessor12createAtRootERKNSt10filesystem7__cxx114pathE(ptr dead_on_unwind nonnull writable sret(%"struct.std::pair") align 8 %4, ptr noundef nonnull align 8 dereferenceable(40) %5)
          to label %6 unwind label %33

6:                                                ; preds = %3
  %7 = getelementptr inbounds i8, ptr %5, i64 32
  %8 = load ptr, ptr %7, align 8
  %.not.i.i.i = icmp eq ptr %8, null
  br i1 %.not.i.i.i, label %_ZNSt10filesystem7__cxx114path5_ListD2Ev.exit.i, label %9

9:                                                ; preds = %6
  call void @_ZNKSt10filesystem7__cxx114path5_List13_Impl_deleterclEPNS2_5_ImplE(ptr noundef nonnull align 1 dereferenceable(1) %7, ptr noundef nonnull %8) #29
  br label %_ZNSt10filesystem7__cxx114path5_ListD2Ev.exit.i

_ZNSt10filesystem7__cxx114path5_ListD2Ev.exit.i:  ; preds = %9, %6
  store ptr null, ptr %7, align 8
  %10 = load ptr, ptr %5, align 8
  %11 = getelementptr inbounds i8, ptr %5, i64 16
  %12 = icmp eq ptr %10, %11
  br i1 %12, label %_ZNKSt7__cxx1112basic_stringIcSt11char_traitsIcESaIcEE11_M_is_localEv.exit.thread.i.i.i, label %_ZNKSt7__cxx1112basic_stringIcSt11char_traitsIcESaIcEE11_M_is_localEv.exit.i.i.i

_ZNKSt7__cxx1112basic_stringIcSt11char_traitsIcESaIcEE11_M_is_localEv.exit.thread.i.i.i: ; preds = %_ZNSt10filesystem7__cxx114path5_ListD2Ev.exit.i
  %13 = getelementptr inbounds i8, ptr %5, i64 8
  %14 = load i64, ptr %13, align 8
  %15 = icmp ult i64 %14, 16
  call void @llvm.assume(i1 %15)
  br label %_ZNSt10filesystem7__cxx114pathD2Ev.exit

_ZNKSt7__cxx1112basic_stringIcSt11char_traitsIcESaIcEE11_M_is_localEv.exit.i.i.i: ; preds = %_ZNSt10filesystem7__cxx114path5_ListD2Ev.exit.i
  call void @_ZdlPv(ptr noundef %10) #31
  br label %_ZNSt10filesystem7__cxx114pathD2Ev.exit

_ZNSt10filesystem7__cxx114pathD2Ev.exit:          ; preds = %_ZNKSt7__cxx1112basic_stringIcSt11char_traitsIcESaIcEE11_M_is_localEv.exit.thread.i.i.i, %_ZNKSt7__cxx1112basic_stringIcSt11char_traitsIcESaIcEE11_M_is_localEv.exit.i.i.i
  call void @_ZNSaIcED2Ev(ptr noundef nonnull align 1 dereferenceable(1) %5) #29
  %16 = getelementptr inbounds i8, ptr %4, i64 136
  %17 = load ptr, ptr %4, align 8
  %18 = getelementptr i8, ptr %17, i64 -24
  %19 = load i64, ptr %18, align 8
  %20 = getelementptr inbounds i8, ptr %4, i64 %19
  %21 = load ptr, ptr %20, align 8
  %22 = getelementptr inbounds i8, ptr %21, i64 64
  %23 = load ptr, ptr %22, align 8
  invoke void %23(ptr noundef nonnull align 8 dereferenceable(80) %20, ptr noundef nonnull align 8 dereferenceable(32) %16, ptr noundef nonnull align 8 dereferenceable(8) %1, ptr noundef nonnull align 8 dereferenceable(32) %2)
          to label %24 unwind label %35

24:                                               ; preds = %_ZNSt10filesystem7__cxx114pathD2Ev.exit
  %25 = getelementptr inbounds i8, ptr %4, i64 48
  %26 = load i64, ptr %25, align 8
  %27 = load ptr, ptr %16, align 8
  %28 = getelementptr inbounds i8, ptr %4, i64 152
  %29 = icmp eq ptr %27, %28
  br i1 %29, label %_ZNKSt7__cxx1112basic_stringIcSt11char_traitsIcESaIcEE11_M_is_localEv.exit.thread.i.i.i.i, label %_ZNKSt7__cxx1112basic_stringIcSt11char_traitsIcESaIcEE11_M_is_localEv.exit.i.i.i.i

_ZNKSt7__cxx1112basic_stringIcSt11char_traitsIcESaIcEE11_M_is_localEv.exit.thread.i.i.i.i: ; preds = %24
  %30 = getelementptr inbounds i8, ptr %4, i64 144
  %31 = load i64, ptr %30, align 8
  %32 = icmp ult i64 %31, 16
  call void @llvm.assume(i1 %32)
  br label %_ZNSt4pairIN3nix19PosixSourceAccessorENS0_9CanonPathEED2Ev.exit

_ZNKSt7__cxx1112basic_stringIcSt11char_traitsIcESaIcEE11_M_is_localEv.exit.i.i.i.i: ; preds = %24
  call void @_ZdlPv(ptr noundef %27) #31
  br label %_ZNSt4pairIN3nix19PosixSourceAccessorENS0_9CanonPathEED2Ev.exit

_ZNSt4pairIN3nix19PosixSourceAccessorENS0_9CanonPathEED2Ev.exit: ; preds = %_ZNKSt7__cxx1112basic_stringIcSt11char_traitsIcESaIcEE11_M_is_localEv.exit.thread.i.i.i.i, %_ZNKSt7__cxx1112basic_stringIcSt11char_traitsIcESaIcEE11_M_is_localEv.exit.i.i.i.i
  call void @_ZNSaIcED2Ev(ptr noundef nonnull align 1 dereferenceable(1) %16) #29
  call void @_ZN3nix19PosixSourceAccessorD1Ev(ptr noundef nonnull align 8 dereferenceable(56) %4) #29
  ret i64 %26

33:                                               ; preds = %3
  %34 = landingpad { ptr, i32 }
          cleanup
  call void @_ZNSt10filesystem7__cxx114pathD2Ev(ptr noundef nonnull align 8 dereferenceable(40) %5) #29
  br label %37

35:                                               ; preds = %_ZNSt10filesystem7__cxx114pathD2Ev.exit
  %36 = landingpad { ptr, i32 }
          cleanup
  call void @_ZNSt4pairIN3nix19PosixSourceAccessorENS0_9CanonPathEED2Ev(ptr noundef nonnull align 8 dereferenceable(168) %4) #29
  br label %37

37:                                               ; preds = %35, %33
  %.pn = phi { ptr, i32 } [ %36, %35 ], [ %34, %33 ]
  resume { ptr, i32 } %.pn
}